target datalayout = "e-m:e-p270:32:32-p271:32:32-p272:64:64-i64:64-i128:128-f80:128-n8:16:32:64-S128"
target triple = "x86_64-pc-linux-gnu"

%struct.normal_encoding = type { %struct.encoding, [256 x i8], ptr, ptr, ptr, ptr, ptr, ptr, ptr, ptr, ptr }
%struct.encoding = type { [3 x ptr], [2 x ptr], ptr, ptr, ptr, ptr, ptr, ptr, ptr, ptr, ptr, ptr, i32, i8, i8 }

; Function Attrs: nounwind uwtable
define internal i32 @unicode_byte_type(i8 noundef signext %0, i8 noundef signext %1) #0 {
  %3 = alloca i32, align 4
  %4 = alloca i8, align 1
  %5 = alloca i8, align 1
  store i8 %0, ptr %4, align 1, !tbaa !13
  store i8 %1, ptr %5, align 1, !tbaa !13
  %6 = load i8, ptr %4, align 1, !tbaa !13
  %7 = zext i8 %6 to i32
  switch i32 %7, label %15 [
    i32 216, label %8
    i32 217, label %8
    i32 218, label %8
    i32 219, label %8
    i32 220, label %9
    i32 221, label %9
    i32 222, label %9
    i32 223, label %9
    i32 255, label %10
  ]

8:                                                ; preds = %2, %2, %2, %2
  store i32 7, ptr %3, align 4
  br label %16

9:                                                ; preds = %2, %2, %2, %2
  store i32 8, ptr %3, align 4
  br label %16

10:                                               ; preds = %2
  %11 = load i8, ptr %5, align 1, !tbaa !13
  %12 = zext i8 %11 to i32
  switch i32 %12, label %14 [
    i32 255, label %13
    i32 254, label %13
  ]

13:                                               ; preds = %10, %10
  store i32 0, ptr %3, align 4
  br label %16

14:                                               ; preds = %10
  br label %15

15:                                               ; preds = %2, %14
  store i32 29, ptr %3, align 4
  br label %16

16:                                               ; preds = %15, %13, %9, %8
  %17 = load i32, ptr %3, align 4
  ret i32 %17
}

; Function Attrs: nounwind uwtable
define internal i32 @little2_scanComment(ptr noundef %0, ptr noundef %1, ptr noundef %2, ptr noundef %3) #0 {
  %5 = alloca i32, align 4
  %6 = alloca ptr, align 8
  %7 = alloca ptr, align 8
  %8 = alloca ptr, align 8
  %9 = alloca ptr, align 8
  store ptr %0, ptr %6, align 8, !tbaa !45
  store ptr %1, ptr %7, align 8, !tbaa !4
  store ptr %2, ptr %8, align 8, !tbaa !4
  store ptr %3, ptr %9, align 8, !tbaa !9
  %10 = load ptr, ptr %8, align 8, !tbaa !4
  %11 = load ptr, ptr %7, align 8, !tbaa !4
  %12 = ptrtoint ptr %10 to i64
  %13 = ptrtoint ptr %11 to i64
  %14 = sub i64 %12, %13
  %15 = icmp sge i64 %14, 2
  br i1 %15, label %16, label %159

16:                                               ; preds = %4
  %17 = load ptr, ptr %7, align 8, !tbaa !4
  %18 = getelementptr inbounds i8, ptr %17, i64 1
  %19 = load i8, ptr %18, align 1, !tbaa !13
  %20 = sext i8 %19 to i32
  %21 = icmp eq i32 %20, 0
  br i1 %21, label %22, label %28

22:                                               ; preds = %16
  %23 = load ptr, ptr %7, align 8, !tbaa !4
  %24 = getelementptr inbounds i8, ptr %23, i64 0
  %25 = load i8, ptr %24, align 1, !tbaa !13
  %26 = sext i8 %25 to i32
  %27 = icmp eq i32 %26, 45
  br i1 %27, label %31, label %28

28:                                               ; preds = %22, %16
  %29 = load ptr, ptr %7, align 8, !tbaa !4
  %30 = load ptr, ptr %9, align 8, !tbaa !9
  store ptr %29, ptr %30, align 8, !tbaa !4
  store i32 0, ptr %5, align 4
  br label %160

31:                                               ; preds = %22
  %32 = load ptr, ptr %7, align 8, !tbaa !4
  %33 = getelementptr inbounds i8, ptr %32, i64 2
  store ptr %33, ptr %7, align 8, !tbaa !4
  br label %34

34:                                               ; preds = %157, %31
  %35 = load ptr, ptr %8, align 8, !tbaa !4
  %36 = load ptr, ptr %7, align 8, !tbaa !4
  %37 = ptrtoint ptr %35 to i64
  %38 = ptrtoint ptr %36 to i64
  %39 = sub i64 %37, %38
  %40 = icmp sge i64 %39, 2
  br i1 %40, label %41, label %158

41:                                               ; preds = %34
  %42 = load ptr, ptr %7, align 8, !tbaa !4
  %43 = getelementptr inbounds i8, ptr %42, i64 1
  %44 = load i8, ptr %43, align 1, !tbaa !13
  %45 = sext i8 %44 to i32
  %46 = icmp eq i32 %45, 0
  br i1 %46, label %47, label %56

47:                                               ; preds = %41
  %48 = load ptr, ptr %6, align 8, !tbaa !45
  %49 = getelementptr inbounds nuw %struct.normal_encoding, ptr %48, i32 0, i32 1
  %50 = load ptr, ptr %7, align 8, !tbaa !4
  %51 = load i8, ptr %50, align 1, !tbaa !13
  %52 = zext i8 %51 to i64
  %53 = getelementptr inbounds nuw [256 x i8], ptr %49, i64 0, i64 %52
  %54 = load i8, ptr %53, align 1, !tbaa !13
  %55 = zext i8 %54 to i32
  br label %64

56:                                               ; preds = %41
  %57 = load ptr, ptr %7, align 8, !tbaa !4
  %58 = getelementptr inbounds i8, ptr %57, i64 1
  %59 = load i8, ptr %58, align 1, !tbaa !13
  %60 = load ptr, ptr %7, align 8, !tbaa !4
  %61 = getelementptr inbounds i8, ptr %60, i64 0
  %62 = load i8, ptr %61, align 1, !tbaa !13
  %63 = call i32 @unicode_byte_type(i8 noundef signext %59, i8 noundef signext %62)
  br label %64

64:                                               ; preds = %56, %47
  %65 = phi i32 [ %55, %47 ], [ %63, %56 ]
  switch i32 %65, label %154 [
    i32 5, label %66
    i32 6, label %77
    i32 7, label %88
    i32 0, label %99
    i32 1, label %99
    i32 8, label %99
    i32 27, label %102
  ]

66:                                               ; preds = %64
  %67 = load ptr, ptr %8, align 8, !tbaa !4
  %68 = load ptr, ptr %7, align 8, !tbaa !4
  %69 = ptrtoint ptr %67 to i64
  %70 = ptrtoint ptr %68 to i64
  %71 = sub i64 %69, %70
  %72 = icmp slt i64 %71, 2
  br i1 %72, label %73, label %74

73:                                               ; preds = %66
  store i32 -2, ptr %5, align 4
  br label %160

74:                                               ; preds = %66
  %75 = load ptr, ptr %7, align 8, !tbaa !4
  %76 = getelementptr inbounds i8, ptr %75, i64 2
  store ptr %76, ptr %7, align 8, !tbaa !4
  br label %157

77:                                               ; preds = %64
  %78 = load ptr, ptr %8, align 8, !tbaa !4
  %79 = load ptr, ptr %7, align 8, !tbaa !4
  %80 = ptrtoint ptr %78 to i64
  %81 = ptrtoint ptr %79 to i64
  %82 = sub i64 %80, %81
  %83 = icmp slt i64 %82, 3
  br i1 %83, label %84, label %85

84:                                               ; preds = %77
  store i32 -2, ptr %5, align 4
  br label %160

85:                                               ; preds = %77
  %86 = load ptr, ptr %7, align 8, !tbaa !4
  %87 = getelementptr inbounds i8, ptr %86, i64 3
  store ptr %87, ptr %7, align 8, !tbaa !4
  br label %157

88:                                               ; preds = %64
  %89 = load ptr, ptr %8, align 8, !tbaa !4
  %90 = load ptr, ptr %7, align 8, !tbaa !4
  %91 = ptrtoint ptr %89 to i64
  %92 = ptrtoint ptr %90 to i64
  %93 = sub i64 %91, %92
  %94 = icmp slt i64 %93, 4
  br i1 %94, label %95, label %96

95:                                               ; preds = %88
  store i32 -2, ptr %5, align 4
  br label %160

96:                                               ; preds = %88
  %97 = load ptr, ptr %7, align 8, !tbaa !4
  %98 = getelementptr inbounds i8, ptr %97, i64 4
  store ptr %98, ptr %7, align 8, !tbaa !4
  br label %157

99:                                               ; preds = %64, %64, %64
  %100 = load ptr, ptr %7, align 8, !tbaa !4
  %101 = load ptr, ptr %9, align 8, !tbaa !9
  store ptr %100, ptr %101, align 8, !tbaa !4
  store i32 0, ptr %5, align 4
  br label %160

102:                                              ; preds = %64
  %103 = load ptr, ptr %7, align 8, !tbaa !4
  %104 = getelementptr inbounds i8, ptr %103, i64 2
  store ptr %104, ptr %7, align 8, !tbaa !4
  %105 = load ptr, ptr %8, align 8, !tbaa !4
  %106 = load ptr, ptr %7, align 8, !tbaa !4
  %107 = ptrtoint ptr %105 to i64
  %108 = ptrtoint ptr %106 to i64
  %109 = sub i64 %107, %108
  %110 = icmp sge i64 %109, 2
  br i1 %110, label %112, label %111

111:                                              ; preds = %102
  store i32 -1, ptr %5, align 4
  br label %160

112:                                              ; preds = %102
  %113 = load ptr, ptr %7, align 8, !tbaa !4
  %114 = getelementptr inbounds i8, ptr %113, i64 1
  %115 = load i8, ptr %114, align 1, !tbaa !13
  %116 = sext i8 %115 to i32
  %117 = icmp eq i32 %116, 0
  br i1 %117, label %118, label %153

118:                                              ; preds = %112
  %119 = load ptr, ptr %7, align 8, !tbaa !4
  %120 = getelementptr inbounds i8, ptr %119, i64 0
  %121 = load i8, ptr %120, align 1, !tbaa !13
  %122 = sext i8 %121 to i32
  %123 = icmp eq i32 %122, 45
  br i1 %123, label %124, label %153

124:                                              ; preds = %118
  %125 = load ptr, ptr %7, align 8, !tbaa !4
  %126 = getelementptr inbounds i8, ptr %125, i64 2
  store ptr %126, ptr %7, align 8, !tbaa !4
  %127 = load ptr, ptr %8, align 8, !tbaa !4
  %128 = load ptr, ptr %7, align 8, !tbaa !4
  %129 = ptrtoint ptr %127 to i64
  %130 = ptrtoint ptr %128 to i64
  %131 = sub i64 %129, %130
  %132 = icmp sge i64 %131, 2
  br i1 %132, label %134, label %133

133:                                              ; preds = %124
  store i32 -1, ptr %5, align 4
  br label %160

134:                                              ; preds = %124
  %135 = load ptr, ptr %7, align 8, !tbaa !4
  %136 = getelementptr inbounds i8, ptr %135, i64 1
  %137 = load i8, ptr %136, align 1, !tbaa !13
  %138 = sext i8 %137 to i32
  %139 = icmp eq i32 %138, 0
  br i1 %139, label %140, label %146

140:                                              ; preds = %134
  %141 = load ptr, ptr %7, align 8, !tbaa !4
  %142 = getelementptr inbounds i8, ptr %141, i64 0
  %143 = load i8, ptr %142, align 1, !tbaa !13
  %144 = sext i8 %143 to i32
  %145 = icmp eq i32 %144, 62
  br i1 %145, label %149, label %146

146:                                              ; preds = %140, %134
  %147 = load ptr, ptr %7, align 8, !tbaa !4
  %148 = load ptr, ptr %9, align 8, !tbaa !9
  store ptr %147, ptr %148, align 8, !tbaa !4
  store i32 0, ptr %5, align 4
  br label %160

149:                                              ; preds = %140
  %150 = load ptr, ptr %7, align 8, !tbaa !4
  %151 = getelementptr inbounds i8, ptr %150, i64 2
  %152 = load ptr, ptr %9, align 8, !tbaa !9
  store ptr %151, ptr %152, align 8, !tbaa !4
  store i32 13, ptr %5, align 4
  br label %160

153:                                              ; preds = %118, %112
  br label %157

154:                                              ; preds = %64
  %155 = load ptr, ptr %7, align 8, !tbaa !4
  %156 = getelementptr inbounds i8, ptr %155, i64 2
  store ptr %156, ptr %7, align 8, !tbaa !4
  br label %157

157:                                              ; preds = %154, %153, %96, %85, %74
  br label %34, !llvm.loop !130

158:                                              ; preds = %34
  br label %159

159:                                              ; preds = %158, %4
  store i32 -1, ptr %5, align 4
  br label %160

160:                                              ; preds = %159, %149, %146, %133, %111, %99, %95, %84, %73, %28
  %161 = load i32, ptr %5, align 4
  ret i32 %161
}