; Function Attrs: nofree norecurse nosync nounwind memory(argmem: readwrite) uwtable
define internal fastcc range(i32 -2, 14) i32 @little2_scanComment(ptr noundef readonly captures(none) %0, ptr noundef %1, ptr noundef %2, ptr noundef writeonly captures(none) %3) unnamed_addr #4 {
  %5 = ptrtoint ptr %2 to i64
  %6 = ptrtoint ptr %1 to i64
  %7 = sub i64 %5, %6
  %8 = icmp sgt i64 %7, 1
  br i1 %8, label %9, label %.loopexit

9:                                                ; preds = %4
  %10 = getelementptr inbounds nuw i8, ptr %1, i64 1
  %11 = load i8, ptr %10, align 1, !tbaa !9
  %12 = icmp eq i8 %11, 0
  br i1 %12, label %13, label %.loopexit.sink.split

13:                                               ; preds = %9
  %14 = load i8, ptr %1, align 1, !tbaa !9
  %15 = icmp eq i8 %14, 45
  br i1 %15, label %16, label %.loopexit.sink.split

16:                                               ; preds = %13
  %17 = getelementptr inbounds nuw i8, ptr %1, i64 2
  %18 = ptrtoint ptr %17 to i64
  %19 = sub i64 %5, %18
  %20 = icmp sgt i64 %19, 1
  br i1 %20, label %.lr.ph, label %.loopexit

.lr.ph:                                           ; preds = %16
  %21 = getelementptr inbounds nuw i8, ptr %0, i64 128
  br label %22

22:                                               ; preds = %.lr.ph, %67
  %23 = phi i64 [ %19, %.lr.ph ], [ %69, %67 ]
  %.04044 = phi ptr [ %17, %.lr.ph ], [ %.1, %67 ]
  %24 = getelementptr inbounds nuw i8, ptr %.04044, i64 1
  %25 = load i8, ptr %24, align 1, !tbaa !9
  switch i8 %25, label %unicode_byte_type.exit.thread54 [
    i8 0, label %unicode_byte_type.exit
    i8 -40, label %unicode_byte_type.exit.thread57
    i8 -39, label %unicode_byte_type.exit.thread57
    i8 -38, label %unicode_byte_type.exit.thread57
    i8 -37, label %unicode_byte_type.exit.thread57
    i8 -36, label %.loopexit.sink.split
    i8 -35, label %.loopexit.sink.split
    i8 -34, label %.loopexit.sink.split
    i8 -33, label %.loopexit.sink.split
    i8 -1, label %26
  ]

26:                                               ; preds = %22
  %27 = load i8, ptr %.04044, align 1, !tbaa !9
  %switch.i = icmp ugt i8 %27, -3
  br i1 %switch.i, label %.loopexit.sink.split, label %unicode_byte_type.exit.thread54

unicode_byte_type.exit:                           ; preds = %22
  %28 = load i8, ptr %.04044, align 1, !tbaa !9
  %29 = zext i8 %28 to i64
  %30 = getelementptr inbounds nuw [256 x i8], ptr %21, i64 0, i64 %29
  %31 = load i8, ptr %30, align 1, !tbaa !9
  switch i8 %31, label %unicode_byte_type.exit.thread54 [
    i8 5, label %32
    i8 6, label %34
    i8 7, label %unicode_byte_type.exit.thread57
    i8 0, label %.loopexit.sink.split
    i8 1, label %.loopexit.sink.split
    i8 8, label %.loopexit.sink.split
    i8 27, label %41
  ]

32:                                               ; preds = %unicode_byte_type.exit
  %33 = getelementptr inbounds nuw i8, ptr %.04044, i64 2
  br label %67

34:                                               ; preds = %unicode_byte_type.exit
  %35 = icmp eq i64 %23, 2
  br i1 %35, label %.loopexit, label %36

36:                                               ; preds = %34
  %37 = getelementptr inbounds nuw i8, ptr %.04044, i64 3
  br label %67

unicode_byte_type.exit.thread57:                  ; preds = %22, %22, %22, %22, %unicode_byte_type.exit
  %38 = icmp samesign ult i64 %23, 4
  br i1 %38, label %.loopexit, label %39

39:                                               ; preds = %unicode_byte_type.exit.thread57
  %40 = getelementptr inbounds nuw i8, ptr %.04044, i64 4
  br label %67

41:                                               ; preds = %unicode_byte_type.exit
  %42 = getelementptr inbounds nuw i8, ptr %.04044, i64 2
  %43 = ptrtoint ptr %42 to i64
  %44 = sub i64 %5, %43
  %45 = icmp sgt i64 %44, 1
  br i1 %45, label %46, label %.loopexit

46:                                               ; preds = %41
  %47 = getelementptr inbounds nuw i8, ptr %.04044, i64 3
  %48 = load i8, ptr %47, align 1, !tbaa !9
  %49 = icmp eq i8 %48, 0
  br i1 %49, label %50, label %67

50:                                               ; preds = %46
  %51 = load i8, ptr %42, align 1, !tbaa !9
  %52 = icmp eq i8 %51, 45
  br i1 %52, label %53, label %67

53:                                               ; preds = %50
  %54 = getelementptr inbounds nuw i8, ptr %.04044, i64 4
  %55 = ptrtoint ptr %54 to i64
  %56 = sub i64 %5, %55
  %57 = icmp sgt i64 %56, 1
  br i1 %57, label %58, label %.loopexit

58:                                               ; preds = %53
  %59 = getelementptr inbounds nuw i8, ptr %.04044, i64 5
  %60 = load i8, ptr %59, align 1, !tbaa !9
  %61 = icmp eq i8 %60, 0
  br i1 %61, label %62, label %.loopexit.sink.split

62:                                               ; preds = %58
  %63 = load i8, ptr %54, align 1, !tbaa !9
  %64 = icmp eq i8 %63, 62
  %65 = getelementptr inbounds nuw i8, ptr %.04044, i64 6
  %spec.select = select i1 %64, ptr %65, ptr %54
  %spec.select61 = select i1 %64, i32 13, i32 0
  br label %.loopexit.sink.split

unicode_byte_type.exit.thread54:                  ; preds = %22, %26, %unicode_byte_type.exit
  %66 = getelementptr inbounds nuw i8, ptr %.04044, i64 2
  br label %67

67:                                               ; preds = %46, %50, %unicode_byte_type.exit.thread54, %39, %36, %32
  %.1 = phi ptr [ %66, %unicode_byte_type.exit.thread54 ], [ %42, %50 ], [ %42, %46 ], [ %40, %39 ], [ %37, %36 ], [ %33, %32 ]
  %68 = ptrtoint ptr %.1 to i64
  %69 = sub i64 %5, %68
  %70 = icmp sgt i64 %69, 1
  br i1 %70, label %22, label %.loopexit, !llvm.loop !117

.loopexit.sink.split:                             ; preds = %unicode_byte_type.exit, %unicode_byte_type.exit, %unicode_byte_type.exit, %26, %22, %22, %22, %22, %62, %58, %9, %13
  %.sink = phi ptr [ %1, %13 ], [ %1, %9 ], [ %54, %58 ], [ %spec.select, %62 ], [ %.04044, %22 ], [ %.04044, %22 ], [ %.04044, %22 ], [ %.04044, %22 ], [ %.04044, %26 ], [ %.04044, %unicode_byte_type.exit ], [ %.04044, %unicode_byte_type.exit ], [ %.04044, %unicode_byte_type.exit ]
  %.0.ph = phi i32 [ 0, %13 ], [ 0, %9 ], [ 0, %58 ], [ %spec.select61, %62 ], [ 0, %22 ], [ 0, %22 ], [ 0, %22 ], [ 0, %22 ], [ 0, %26 ], [ 0, %unicode_byte_type.exit ], [ 0, %unicode_byte_type.exit ], [ 0, %unicode_byte_type.exit ]
  store ptr %.sink, ptr %3, align 8, !tbaa !4
  br label %.loopexit

.loopexit:                                        ; preds = %34, %unicode_byte_type.exit.thread57, %41, %67, %.loopexit.sink.split, %16, %4, %53
  %.0 = phi i32 [ -1, %53 ], [ -1, %4 ], [ -1, %16 ], [ %.0.ph, %.loopexit.sink.split ], [ -2, %34 ], [ -2, %unicode_byte_type.exit.thread57 ], [ -1, %41 ], [ -1, %67 ]
  ret i32 %.0
}